target datalayout = "e-m:e-p270:32:32-p271:32:32-p272:64:64-i64:64-i128:128-f80:128-n8:16:32:64-S128"
target triple = "x86_64-pc-linux-gnu"

%struct.Gia_ParSim_t_ = type { i32, i32, i32, i32, i32, i32, i32 }

; Function Attrs: nounwind uwtable
define void @Gia_ManResetRandom(ptr noundef %0) #0 {
  %2 = alloca ptr, align 8
  %3 = alloca i32, align 4
  store ptr %0, ptr %2, align 8, !tbaa !53
  call void @llvm.lifetime.start.p0(i64 4, ptr %3) #11
  %4 = call i32 @Gia_ManRandom(i32 noundef 1)
  store i32 0, ptr %3, align 4, !tbaa !8
  br label %5

5:                                                ; preds = %13, %1
  %6 = load i32, ptr %3, align 4, !tbaa !8
  %7 = load ptr, ptr %2, align 8, !tbaa !53
  %8 = getelementptr inbounds nuw %struct.Gia_ParSim_t_, ptr %7, i32 0, i32 2
  %9 = load i32, ptr %8, align 4, !tbaa !57
  %10 = icmp slt i32 %6, %9
  br i1 %10, label %11, label %16

11:                                               ; preds = %5
  %12 = call i32 @Gia_ManRandom(i32 noundef 0)
  br label %13

13:                                               ; preds = %11
  %14 = load i32, ptr %3, align 4, !tbaa !8
  %15 = add nsw i32 %14, 1
  store i32 %15, ptr %3, align 4, !tbaa !8
  br label %5, !llvm.loop !96

16:                                               ; preds = %5
  call void @llvm.lifetime.end.p0(i64 4, ptr %3) #11
  ret void
}