; Function Attrs: nounwind uwtable
define void @Gia_ManResetRandom(ptr noundef readonly captures(none) %0) local_unnamed_addr #1 {
  %2 = tail call i32 @Gia_ManRandom(i32 noundef 1) #26
  %3 = getelementptr inbounds nuw i8, ptr %0, i64 8
  %4 = load i32, ptr %3, align 4, !tbaa !53
  %5 = icmp sgt i32 %4, 0
  br i1 %5, label %.lr.ph, label %._crit_edge

.lr.ph:                                           ; preds = %1, %.lr.ph
  %.02 = phi i32 [ %7, %.lr.ph ], [ 0, %1 ]
  %6 = tail call i32 @Gia_ManRandom(i32 noundef 0) #26
  %7 = add nuw nsw i32 %.02, 1
  %8 = load i32, ptr %3, align 4, !tbaa !53
  %9 = icmp slt i32 %7, %8
  br i1 %9, label %.lr.ph, label %._crit_edge, !llvm.loop !92

._crit_edge:                                      ; preds = %.lr.ph, %1
  ret void
}